target datalayout = "e-m:e-p270:32:32-p271:32:32-p272:64:64-i64:64-i128:128-f80:128-n8:16:32:64-S128"
target triple = "x86_64-pc-linux-gnu"

@hf_zbee_zdp_req_type = external global i32, align 4
@hf_zbee_zdp_index = external global i32, align 4
@hf_zbee_zdp_nwk_addr = external global i32, align 4
@.str.1 = private unnamed_addr constant [19 x i8] c", Nwk Addr: 0x%04x\00", align 1

; Function Attrs: nounwind uwtable
define hidden void @dissect_zbee_zdp_req_ext_addr(ptr noundef %0, ptr noundef %1, ptr noundef %2) #0 {
  %4 = alloca ptr, align 8
  %5 = alloca ptr, align 8
  %6 = alloca ptr, align 8
  %7 = alloca i32, align 4
  %8 = alloca i32, align 4
  store ptr %0, ptr %4, align 8
  store ptr %1, ptr %5, align 8
  store ptr %2, ptr %6, align 8
  store i32 0, ptr %7, align 4
  %9 = load ptr, ptr %6, align 8
  %10 = load i32, ptr @hf_zbee_zdp_nwk_addr, align 4
  %11 = load ptr, ptr %4, align 8
  %12 = load i32, ptr %7, align 4
  %13 = call ptr @proto_tree_add_item_ret_uint(ptr noundef %9, i32 noundef %10, ptr noundef %11, i32 noundef %12, i32 noundef 2, i32 noundef -2147483648, ptr noundef %8)
  %14 = load i32, ptr %7, align 4
  %15 = add i32 %14, 2
  store i32 %15, ptr %7, align 4
  %16 = load ptr, ptr %6, align 8
  %17 = load i32, ptr @hf_zbee_zdp_req_type, align 4
  %18 = load ptr, ptr %4, align 8
  %19 = load i32, ptr %7, align 4
  %20 = call ptr @proto_tree_add_item(ptr noundef %16, i32 noundef %17, ptr noundef %18, i32 noundef %19, i32 noundef 1, i32 noundef -2147483648)
  %21 = load i32, ptr %7, align 4
  %22 = add i32 %21, 1
  store i32 %22, ptr %7, align 4
  %23 = load ptr, ptr %6, align 8
  %24 = load i32, ptr @hf_zbee_zdp_index, align 4
  %25 = load ptr, ptr %4, align 8
  %26 = load i32, ptr %7, align 4
  %27 = call ptr @proto_tree_add_item(ptr noundef %23, i32 noundef %24, ptr noundef %25, i32 noundef %26, i32 noundef 1, i32 noundef -2147483648)
  %28 = load i32, ptr %7, align 4
  %29 = add i32 %28, 1
  store i32 %29, ptr %7, align 4
  %30 = load ptr, ptr %6, align 8
  %31 = load ptr, ptr %5, align 8
  %32 = load i32, ptr %8, align 4
  call void (ptr, ptr, ptr, ...) @zbee_append_info(ptr noundef %30, ptr noundef %31, ptr noundef @.str.1, i32 noundef %32)
  %33 = load ptr, ptr %4, align 8
  %34 = load i32, ptr %7, align 4
  %35 = load ptr, ptr %5, align 8
  %36 = load ptr, ptr %6, align 8
  call void @zdp_dump_excess(ptr noundef %33, i32 noundef %34, ptr noundef %35, ptr noundef %36)
  ret void
}